; Function Attrs: mustprogress nounwind uwtable
define hidden noundef range(i32 0, 3) i32 @_ZNK4llvh6detail9IEEEFloat20compareAbsoluteValueERKS1_(ptr noundef nonnull align 8 dereferenceable(24) %this, ptr noundef nonnull align 8 dereferenceable(24) %rhs) local_unnamed_addr #2 align 2 {
entry:
  %exponent = getelementptr inbounds nuw i8, ptr %this, i64 16
  %0 = load i16, ptr %exponent, align 8
  %conv = sext i16 %0 to i32
  %exponent2 = getelementptr inbounds nuw i8, ptr %rhs, i64 16
  %1 = load i16, ptr %exponent2, align 8
  %conv3 = sext i16 %1 to i32
  %sub = sub nsw i32 %conv, %conv3
  %cmp = icmp eq i32 %sub, 0
  br i1 %cmp, label %if.then, label %if.end

if.then:                                          ; preds = %entry
  %2 = load ptr, ptr %this, align 8
  %precision.i.i.i = getelementptr inbounds nuw i8, ptr %2, i64 4
  %3 = load i32, ptr %precision.i.i.i, align 4
  %4 = add i32 %3, -64
  %cmp.i.i = icmp ult i32 %4, -128
  %significand.i.i = getelementptr inbounds nuw i8, ptr %this, i64 8
  %5 = load ptr, ptr %significand.i.i, align 8
  %retval.0.i.i = select i1 %cmp.i.i, ptr %5, ptr %significand.i.i
  %6 = load ptr, ptr %rhs, align 8
  %precision.i.i.i4 = getelementptr inbounds nuw i8, ptr %6, i64 4
  %7 = load i32, ptr %precision.i.i.i4, align 4
  %8 = add i32 %7, -64
  %cmp.i.i5 = icmp ult i32 %8, -128
  %significand.i.i6 = getelementptr inbounds nuw i8, ptr %rhs, i64 8
  %9 = load ptr, ptr %significand.i.i6, align 8
  %retval.0.i.i7 = select i1 %cmp.i.i5, ptr %9, ptr %significand.i.i6
  %sub.i.i = add i32 %3, 64
  %div1.i.i = lshr i32 %sub.i.i, 6
  %call6 = tail call noundef i32 @_ZN4llvh5APInt9tcCompareEPKmS2_j(ptr noundef %retval.0.i.i, ptr noundef %retval.0.i.i7, i32 noundef %div1.i.i) #26
  br label %if.end

if.end:                                           ; preds = %if.then, %entry
  %compare.0 = phi i32 [ %call6, %if.then ], [ %sub, %entry ]
  %cmp7 = icmp sgt i32 %compare.0, 0
  %cmp9 = icmp sgt i32 %compare.0, -1
  %. = zext i1 %cmp9 to i32
  %retval.0 = select i1 %cmp7, i32 2, i32 %.
  ret i32 %retval.0
}